target datalayout = "e-m:e-p270:32:32-p271:32:32-p272:64:64-i64:64-i128:128-f80:128-n8:16:32:64-S128"
target triple = "x86_64-unknown-linux-gnu"

%"struct.EA::Thread::ThreadTime" = type { %struct.timespec }
%struct.timespec = type { i64, i64 }
%struct.EAConditionData = type { %union.pthread_cond_t }
%union.pthread_cond_t = type { %struct.__pthread_cond_s }
%struct.__pthread_cond_s = type { %union.__atomic_wide_counter, %union.__atomic_wide_counter, [2 x i32], [2 x i32], i32, i32, [2 x i32] }
%union.__atomic_wide_counter = type { i64 }
%"class.EA::Thread::Condition" = type { %struct.EAConditionData }
%struct.EAMutexData = type <{ %union.pthread_mutex_t, i32, [4 x i8] }>
%union.pthread_mutex_t = type { %struct.__pthread_mutex_s }
%struct.__pthread_mutex_s = type { i32, i32, i32, i32, i32, i16, i16, %struct.__pthread_internal_list }
%struct.__pthread_internal_list = type { ptr, ptr }
%"class.EA::Thread::Mutex" = type { %struct.EAMutexData }

@_ZN2EA6ThreadL12kTimeoutNoneE = internal global %"struct.EA::Thread::ThreadTime" zeroinitializer, align 8

; Function Attrs: mustprogress nounwind uwtable
define linkonce_odr dso_local noundef zeroext i1 @_ZN2EA6ThreadeqERKNS0_10ThreadTimeES3_(ptr noundef nonnull align 8 dereferenceable(16) %tt1, ptr noundef nonnull align 8 dereferenceable(16) %tt2) #1 comdat {
entry:
  %tt1.addr = alloca ptr, align 8
  %tt2.addr = alloca ptr, align 8
  store ptr %tt1, ptr %tt1.addr, align 8
  store ptr %tt2, ptr %tt2.addr, align 8
  %0 = load ptr, ptr %tt1.addr, align 8
  %tv_nsec = getelementptr inbounds %struct.timespec, ptr %0, i32 0, i32 1
  %1 = load i64, ptr %tv_nsec, align 8
  %2 = load ptr, ptr %tt2.addr, align 8
  %tv_nsec1 = getelementptr inbounds %struct.timespec, ptr %2, i32 0, i32 1
  %3 = load i64, ptr %tv_nsec1, align 8
  %cmp = icmp eq i64 %1, %3
  br i1 %cmp, label %land.rhs, label %land.end

land.rhs:                                         ; preds = %entry
  %4 = load ptr, ptr %tt1.addr, align 8
  %tv_sec = getelementptr inbounds %struct.timespec, ptr %4, i32 0, i32 0
  %5 = load i64, ptr %tv_sec, align 8
  %6 = load ptr, ptr %tt2.addr, align 8
  %tv_sec2 = getelementptr inbounds %struct.timespec, ptr %6, i32 0, i32 0
  %7 = load i64, ptr %tv_sec2, align 8
  %cmp3 = icmp eq i64 %5, %7
  br label %land.end

land.end:                                         ; preds = %land.rhs, %entry
  %8 = phi i1 [ false, %entry ], [ %cmp3, %land.rhs ]
  ret i1 %8
}

; Function Attrs: mustprogress nounwind uwtable
define linkonce_odr dso_local noundef ptr @_ZN2EA6Thread5Mutex15GetPlatformDataEv(ptr noundef nonnull align 8 dereferenceable(48) %this) #1 comdat align 2 {
entry:
  %this.addr = alloca ptr, align 8
  store ptr %this, ptr %this.addr, align 8
  %this1 = load ptr, ptr %this.addr, align 8
  %mMutexData = getelementptr inbounds %"class.EA::Thread::Mutex", ptr %this1, i32 0, i32 0
  ret ptr %mMutexData
}

; Function Attrs: mustprogress uwtable
define dso_local noundef i32 @_ZN2EA6Thread9Condition4WaitEPNS0_5MutexERKNS0_10ThreadTimeE(ptr noundef nonnull align 8 dereferenceable(48) %this, ptr noundef %pMutex, ptr noundef nonnull align 8 dereferenceable(16) %timeoutAbsolute) #3 align 2 {
entry:
  %retval = alloca i32, align 4
  %this.addr = alloca ptr, align 8
  %pMutex.addr = alloca ptr, align 8
  %timeoutAbsolute.addr = alloca ptr, align 8
  %result = alloca i32, align 4
  %pMutex_t = alloca ptr, align 8
  %pMutexData = alloca ptr, align 8
  store ptr %this, ptr %this.addr, align 8
  store ptr %pMutex, ptr %pMutex.addr, align 8
  store ptr %timeoutAbsolute, ptr %timeoutAbsolute.addr, align 8
  %this1 = load ptr, ptr %this.addr, align 8
  %0 = load ptr, ptr %pMutex.addr, align 8
  %call = call noundef ptr @_ZN2EA6Thread5Mutex15GetPlatformDataEv(ptr noundef nonnull align 8 dereferenceable(48) %0)
  store ptr %call, ptr %pMutexData, align 8
  %1 = load ptr, ptr %pMutexData, align 8
  call void @_ZN11EAMutexData12SimulateLockEb(ptr noundef nonnull align 8 dereferenceable(44) %1, i1 noundef zeroext false)
  %2 = load ptr, ptr %pMutexData, align 8
  %mMutex = getelementptr inbounds %struct.EAMutexData, ptr %2, i32 0, i32 0
  store ptr %mMutex, ptr %pMutex_t, align 8
  %3 = load ptr, ptr %timeoutAbsolute.addr, align 8
  %call2 = call noundef zeroext i1 @_ZN2EA6ThreadeqERKNS0_10ThreadTimeES3_(ptr noundef nonnull align 8 dereferenceable(16) %3, ptr noundef nonnull align 8 dereferenceable(16) @_ZN2EA6ThreadL12kTimeoutNoneE)
  br i1 %call2, label %if.then, label %if.else

if.then:                                          ; preds = %entry
  %mConditionData = getelementptr inbounds %"class.EA::Thread::Condition", ptr %this1, i32 0, i32 0
  %mCV = getelementptr inbounds %struct.EAConditionData, ptr %mConditionData, i32 0, i32 0
  %4 = load ptr, ptr %pMutex_t, align 8
  %call3 = call i32 @pthread_cond_wait(ptr noundef %mCV, ptr noundef %4)
  store i32 %call3, ptr %result, align 4
  br label %if.end

if.else:                                          ; preds = %entry
  %mConditionData4 = getelementptr inbounds %"class.EA::Thread::Condition", ptr %this1, i32 0, i32 0
  %mCV5 = getelementptr inbounds %struct.EAConditionData, ptr %mConditionData4, i32 0, i32 0
  %5 = load ptr, ptr %pMutex_t, align 8
  %6 = load ptr, ptr %timeoutAbsolute.addr, align 8
  %call6 = call i32 @pthread_cond_timedwait(ptr noundef %mCV5, ptr noundef %5, ptr noundef %6)
  store i32 %call6, ptr %result, align 4
  br label %if.end

if.end:                                           ; preds = %if.else, %if.then
  %7 = load ptr, ptr %pMutexData, align 8
  call void @_ZN11EAMutexData12SimulateLockEb(ptr noundef nonnull align 8 dereferenceable(44) %7, i1 noundef zeroext true)
  %8 = load i32, ptr %result, align 4
  %cmp = icmp ne i32 %8, 0
  br i1 %cmp, label %if.then7, label %if.end11

if.then7:                                         ; preds = %if.end
  %9 = load i32, ptr %result, align 4
  %cmp8 = icmp eq i32 %9, 110
  br i1 %cmp8, label %if.then9, label %if.end10

if.then9:                                         ; preds = %if.then7
  store i32 -2, ptr %retval, align 4
  br label %return

if.end10:                                         ; preds = %if.then7
  store i32 -1, ptr %retval, align 4
  br label %return

if.end11:                                         ; preds = %if.end
  store i32 0, ptr %retval, align 4
  br label %return

return:                                           ; preds = %if.end11, %if.end10, %if.then9
  %10 = load i32, ptr %retval, align 4
  ret i32 %10
}