; Function Attrs: mustprogress uwtable
define dso_local noundef range(i32 -2, 1) i32 @_ZN2EA6Thread9Condition4WaitEPNS0_5MutexERKNS0_10ThreadTimeE(ptr noundef nonnull align 8 dereferenceable(48) %this, ptr noundef nonnull %pMutex, ptr noundef nonnull align 8 dereferenceable(16) %timeoutAbsolute) local_unnamed_addr #4 align 2 {
entry:
  tail call void @_ZN11EAMutexData12SimulateLockEb(ptr noundef nonnull align 8 dereferenceable(44) %pMutex, i1 noundef zeroext false)
  %tv_nsec.i = getelementptr inbounds nuw i8, ptr %timeoutAbsolute, i64 8
  %0 = load i64, ptr %tv_nsec.i, align 8
  %cmp.i = icmp eq i64 %0, 2147483647
  %1 = load i64, ptr %timeoutAbsolute, align 8
  %cmp3.i = icmp eq i64 %1, 2147483647
  %2 = select i1 %cmp.i, i1 %cmp3.i, i1 false
  br i1 %2, label %if.then, label %if.else

if.then:                                          ; preds = %entry
  %call3 = tail call i32 @pthread_cond_wait(ptr noundef nonnull %this, ptr noundef nonnull %pMutex)
  br label %if.end

if.else:                                          ; preds = %entry
  %call6 = tail call i32 @pthread_cond_timedwait(ptr noundef nonnull %this, ptr noundef nonnull %pMutex, ptr noundef nonnull %timeoutAbsolute)
  br label %if.end

if.end:                                           ; preds = %if.else, %if.then
  %result.0 = phi i32 [ %call3, %if.then ], [ %call6, %if.else ]
  tail call void @_ZN11EAMutexData12SimulateLockEb(ptr noundef nonnull align 8 dereferenceable(44) %pMutex, i1 noundef zeroext true)
  %switch.selectcmp = icmp eq i32 %result.0, 110
  %switch.select = select i1 %switch.selectcmp, i32 -2, i32 -1
  %switch.selectcmp6 = icmp eq i32 %result.0, 0
  %switch.select7 = select i1 %switch.selectcmp6, i32 0, i32 %switch.select
  ret i32 %switch.select7
}